target datalayout = "e-m:e-p270:32:32-p271:32:32-p272:64:64-i64:64-i128:128-f80:128-n8:16:32:64-S128"
target triple = "x86_64-pc-linux-gnu"

%struct._lv_image_decoder_dsc_t = type { ptr, %struct._lv_image_decoder_args_t, ptr, i32, %struct.lv_fs_file_t, %struct.lv_image_header_t, ptr, ptr, i32, i32, ptr, ptr, ptr, ptr }
%struct._lv_image_decoder_args_t = type { i8, i8, i8, i8, i8 }
%struct.lv_fs_file_t = type { ptr, ptr, ptr }
%struct.lv_image_header_t = type <{ i64, i32 }>
%struct.decoder_data_t = type { ptr, ptr, ptr, %struct._lv_image_compressed_t, ptr, ptr, %struct._lv_draw_buf_t, ptr }
%struct._lv_image_compressed_t = type { i32, i32, i32, ptr }
%struct._lv_draw_buf_t = type { %struct.lv_image_header_t, i32, ptr, ptr, ptr }

; Function Attrs: nounwind uwtable
define void @lv_bin_decoder_close(ptr noundef %0, ptr noundef %1) #0 {
  %3 = alloca ptr, align 8
  %4 = alloca ptr, align 8
  %5 = alloca ptr, align 8
  store ptr %0, ptr %3, align 8, !tbaa !3
  store ptr %1, ptr %4, align 8, !tbaa !11
  call void @llvm.lifetime.start.p0(i64 8, ptr %5) #5
  %6 = load ptr, ptr %4, align 8, !tbaa !11
  %7 = getelementptr inbounds nuw %struct._lv_image_decoder_dsc_t, ptr %6, i32 0, i32 13
  %8 = load ptr, ptr %7, align 8, !tbaa !29
  store ptr %8, ptr %5, align 8, !tbaa !13
  %9 = load ptr, ptr %5, align 8, !tbaa !13
  %10 = icmp ne ptr %9, null
  br i1 %10, label %11, label %22

11:                                               ; preds = %2
  %12 = load ptr, ptr %5, align 8, !tbaa !13
  %13 = getelementptr inbounds nuw %struct.decoder_data_t, ptr %12, i32 0, i32 7
  %14 = load ptr, ptr %13, align 8, !tbaa !58
  %15 = icmp ne ptr %14, null
  br i1 %15, label %16, label %22

16:                                               ; preds = %11
  %17 = load ptr, ptr %5, align 8, !tbaa !13
  %18 = getelementptr inbounds nuw %struct.decoder_data_t, ptr %17, i32 0, i32 7
  %19 = load ptr, ptr %18, align 8, !tbaa !58
  call void @lv_draw_buf_destroy(ptr noundef %19)
  %20 = load ptr, ptr %5, align 8, !tbaa !13
  %21 = getelementptr inbounds nuw %struct.decoder_data_t, ptr %20, i32 0, i32 7
  store ptr null, ptr %21, align 8, !tbaa !58
  br label %22

22:                                               ; preds = %16, %11, %2
  %23 = load ptr, ptr %4, align 8, !tbaa !11
  call void @free_decoder_data(ptr noundef %23)
  call void @llvm.lifetime.end.p0(i64 8, ptr %5) #5
  ret void
}