; Function Attrs: nounwind uwtable
define void @lv_bin_decoder_close(ptr readnone captures(none) %0, ptr noundef captures(none) %1) #0 {
  %3 = getelementptr inbounds nuw i8, ptr %1, i64 120
  %4 = load ptr, ptr %3, align 8, !tbaa !23
  %.not = icmp eq ptr %4, null
  br i1 %.not, label %9, label %5

5:                                                ; preds = %2
  %6 = getelementptr inbounds nuw i8, ptr %4, i64 104
  %7 = load ptr, ptr %6, align 8, !tbaa !52
  %.not7 = icmp eq ptr %7, null
  br i1 %.not7, label %9, label %8

8:                                                ; preds = %5
  tail call void @lv_draw_buf_destroy(ptr noundef nonnull %7) #4
  store ptr null, ptr %6, align 8, !tbaa !52
  br label %9

9:                                                ; preds = %8, %5, %2
  tail call fastcc void @free_decoder_data(ptr noundef nonnull %1)
  ret void
}